; Function Attrs: mustprogress uwtable
define void @_ZN9grpc_core32InsecureChannelSecurityConnector15add_handshakersERKNS_11ChannelArgsEP16grpc_pollset_setPNS_16HandshakeManagerE(ptr noundef nonnull align 8 dereferenceable(56) %this, ptr noundef nonnull align 8 dereferenceable(8) %args, ptr nocapture readnone %0, ptr noundef %handshake_manager) unnamed_addr #3 align 2 personality ptr @__gxx_personality_v0 {
entry:
  %handshaker = alloca ptr, align 8
  %agg.tmp = alloca %"class.grpc_core::RefCountedPtr.3", align 8
  store ptr null, ptr %handshaker, align 8
  %call = call noundef i32 @_Z27tsi_local_handshaker_createPP14tsi_handshaker(ptr noundef nonnull %handshaker)
  %cmp.not = icmp eq i32 %call, 0
  br i1 %cmp.not, label %do.end, label %if.then

if.then:                                          ; preds = %entry
  call void @gpr_assertion_failed(ptr noundef nonnull @.str, i32 noundef 74, ptr noundef nonnull @.str.1) #18
  unreachable

do.end:                                           ; preds = %entry
  %1 = load ptr, ptr %handshaker, align 8
  call void @_ZN9grpc_core24SecurityHandshakerCreateEP14tsi_handshakerP23grpc_security_connectorRKNS_11ChannelArgsE(ptr nonnull sret(%"class.grpc_core::RefCountedPtr.3") align 8 %agg.tmp, ptr noundef %1, ptr noundef nonnull %this, ptr noundef nonnull align 8 dereferenceable(8) %args)
  invoke void @_ZN9grpc_core16HandshakeManager3AddENS_13RefCountedPtrINS_10HandshakerEEE(ptr noundef nonnull align 8 dereferenceable(216) %handshake_manager, ptr noundef nonnull %agg.tmp)
          to label %invoke.cont unwind label %lpad

invoke.cont:                                      ; preds = %do.end
  %2 = load ptr, ptr %agg.tmp, align 8
  %cmp.not.i = icmp eq ptr %2, null
  br i1 %cmp.not.i, label %_ZN9grpc_core13RefCountedPtrINS_10HandshakerEED2Ev.exit, label %if.then.i

if.then.i:                                        ; preds = %invoke.cont
  %refs_.i.i = getelementptr inbounds i8, ptr %2, i64 8
  %3 = atomicrmw sub ptr %refs_.i.i, i64 1 acq_rel, align 8
  %cmp.i.i.i = icmp eq i64 %3, 1
  br i1 %cmp.i.i.i, label %if.then.i.i, label %_ZN9grpc_core13RefCountedPtrINS_10HandshakerEED2Ev.exit

if.then.i.i:                                      ; preds = %if.then.i
  %vtable.i.i.i = load ptr, ptr %2, align 8
  %vfn.i.i.i = getelementptr inbounds i8, ptr %vtable.i.i.i, i64 8
  %4 = load ptr, ptr %vfn.i.i.i, align 8
  call void %4(ptr noundef nonnull align 8 dereferenceable(16) %2) #17
  br label %_ZN9grpc_core13RefCountedPtrINS_10HandshakerEED2Ev.exit

_ZN9grpc_core13RefCountedPtrINS_10HandshakerEED2Ev.exit: ; preds = %invoke.cont, %if.then.i, %if.then.i.i
  ret void

lpad:                                             ; preds = %do.end
  %5 = landingpad { ptr, i32 }
          cleanup
  %6 = load ptr, ptr %agg.tmp, align 8
  %cmp.not.i1 = icmp eq ptr %6, null
  br i1 %cmp.not.i1, label %_ZN9grpc_core13RefCountedPtrINS_10HandshakerEED2Ev.exit8, label %if.then.i2

if.then.i2:                                       ; preds = %lpad
  %refs_.i.i3 = getelementptr inbounds i8, ptr %6, i64 8
  %7 = atomicrmw sub ptr %refs_.i.i3, i64 1 acq_rel, align 8
  %cmp.i.i.i4 = icmp eq i64 %7, 1
  br i1 %cmp.i.i.i4, label %if.then.i.i5, label %_ZN9grpc_core13RefCountedPtrINS_10HandshakerEED2Ev.exit8

if.then.i.i5:                                     ; preds = %if.then.i2
  %vtable.i.i.i6 = load ptr, ptr %6, align 8
  %vfn.i.i.i7 = getelementptr inbounds i8, ptr %vtable.i.i.i6, i64 8
  %8 = load ptr, ptr %vfn.i.i.i7, align 8
  call void %8(ptr noundef nonnull align 8 dereferenceable(16) %6) #17
  br label %_ZN9grpc_core13RefCountedPtrINS_10HandshakerEED2Ev.exit8

_ZN9grpc_core13RefCountedPtrINS_10HandshakerEED2Ev.exit8: ; preds = %lpad, %if.then.i2, %if.then.i.i5
  resume { ptr, i32 } %5
}